(dp0
S'zPos'
p1
F0.0
sS'bedReady'
p2
S'READY'
p3
sS'yPos'
p4
F0.0
sS'extruderTemp'
p5
F53.1
sS'bedTemp'
p6
F0.0
sS'availability'
p7
S'AVAILABLE'
p8
sS'extruderReady'
p9
g3
sS'xPos'
p10
F0.0
sS'buildProgress'
p11
S'0.0%'
p12
sS'bedTargetTemp'
p13
F0.0
sS'extruderTargetTemp'
p14
F0.0
s.