(dp0
S'extruderReady'
p1
S'READY'
p2
sS'xPos'
p3
F0.0
sS'zPos'
p4
F0.0
sS'bedReady'
p5
g2
sS'buildProgress'
p6
S'0.0%'
p7
sS'yPos'
p8
F0.0
sS'bedTargetTemp'
p9
F0.0
sS'extruderTemp'
p10
F53.1
sS'extruderTargetTemp'
p11
F0.0
sS'bedTemp'
p12
F0.0
sS'availability'
p13
S'AVAILABLE'
p14
s.